; Function Attrs: nounwind uwtable
define internal ptr @sys_exception(ptr readnone captures(none) %0, ptr readnone captures(none) %1) #0 {
  %3 = tail call align 8 ptr @llvm.threadlocal.address.p0(ptr align 8 @_Py_tss_tstate)
  %4 = load ptr, ptr %3, align 8, !tbaa !92
  %5 = tail call ptr @_PyErr_GetTopmostException(ptr noundef %4) #15
  %6 = load ptr, ptr %5, align 8, !tbaa !268
  %.not.i = icmp eq ptr %6, null
  br i1 %.not.i, label %sys_exception_impl.exit, label %7

7:                                                ; preds = %2
  %8 = load i32, ptr %6, align 8, !tbaa !94
  %9 = icmp slt i32 %8, 0
  br i1 %9, label %sys_exception_impl.exit, label %10

10:                                               ; preds = %7
  %11 = add nuw i32 %8, 1
  store i32 %11, ptr %6, align 8, !tbaa !94
  br label %sys_exception_impl.exit

sys_exception_impl.exit:                          ; preds = %2, %7, %10
  %.0.i = phi ptr [ @_Py_NoneStruct, %2 ], [ %6, %7 ], [ %6, %10 ]
  ret ptr %.0.i
}